target datalayout = "e-m:e-p270:32:32-p271:32:32-p272:64:64-i64:64-i128:128-f80:128-n8:16:32:64-S128"
target triple = "x86_64-pc-linux-gnu"

%struct.evp_aead_ctx_st = type { ptr, ptr }
%struct.AEAD_SSL3_CTX = type { %struct.evp_cipher_ctx_st, %struct.env_md_ctx_st }
%struct.evp_cipher_ctx_st = type { ptr, ptr, ptr, i32, i32, i32, [16 x i8], [16 x i8], [32 x i8], i32, i32, i32, i32, [32 x i8] }
%struct.env_md_ctx_st = type { ptr, ptr, ptr, ptr }

@.str = private unnamed_addr constant [126 x i8] c"generated/home/dtcxzyw/WorkSpace/Projects/compilers/llvm-opt-benchmark/bench/libquic/libquic/boringssl/crypto/cipher/e_ssl3.c\00", align 1

; Function Attrs: nounwind uwtable
define internal i32 @aead_ssl3_seal(ptr noundef %0, ptr noundef %1, ptr noundef %2, i64 noundef %3, ptr noundef %4, i64 noundef %5, ptr noundef %6, i64 noundef %7, ptr noundef %8, i64 noundef %9) #0 {
  %11 = alloca i32, align 4
  %12 = alloca ptr, align 8
  %13 = alloca ptr, align 8
  %14 = alloca ptr, align 8
  %15 = alloca i64, align 8
  %16 = alloca ptr, align 8
  %17 = alloca i64, align 8
  %18 = alloca ptr, align 8
  %19 = alloca i64, align 8
  %20 = alloca ptr, align 8
  %21 = alloca i64, align 8
  %22 = alloca ptr, align 8
  %23 = alloca i64, align 8
  %24 = alloca i32, align 4
  %25 = alloca [64 x i8], align 16
  %26 = alloca i32, align 4
  %27 = alloca i32, align 4
  %28 = alloca i32, align 4
  %29 = alloca [256 x i8], align 16
  %30 = alloca i32, align 4
  store ptr %0, ptr %12, align 8, !tbaa !6
  store ptr %1, ptr %13, align 8, !tbaa !11
  store ptr %2, ptr %14, align 8, !tbaa !21
  store i64 %3, ptr %15, align 8, !tbaa !13
  store ptr %4, ptr %16, align 8, !tbaa !11
  store i64 %5, ptr %17, align 8, !tbaa !13
  store ptr %6, ptr %18, align 8, !tbaa !11
  store i64 %7, ptr %19, align 8, !tbaa !13
  store ptr %8, ptr %20, align 8, !tbaa !11
  store i64 %9, ptr %21, align 8, !tbaa !13
  call void @llvm.lifetime.start.p0(i64 8, ptr %22) #6
  %31 = load ptr, ptr %12, align 8, !tbaa !6
  %32 = getelementptr inbounds nuw %struct.evp_aead_ctx_st, ptr %31, i32 0, i32 1
  %33 = load ptr, ptr %32, align 8, !tbaa !17
  store ptr %33, ptr %22, align 8, !tbaa !20
  call void @llvm.lifetime.start.p0(i64 8, ptr %23) #6
  store i64 0, ptr %23, align 8, !tbaa !13
  %34 = load ptr, ptr %22, align 8, !tbaa !20
  %35 = getelementptr inbounds nuw %struct.AEAD_SSL3_CTX, ptr %34, i32 0, i32 0
  %36 = getelementptr inbounds nuw %struct.evp_cipher_ctx_st, ptr %35, i32 0, i32 4
  %37 = load i32, ptr %36, align 4, !tbaa !23
  %38 = icmp ne i32 %37, 0
  br i1 %38, label %40, label %39

39:                                               ; preds = %10
  call void @ERR_put_error(i32 noundef 30, i32 noundef 0, i32 noundef 112, ptr noundef @.str, i32 noundef 136)
  store i32 0, ptr %11, align 4
  store i32 1, ptr %24, align 4
  br label %174

40:                                               ; preds = %10
  %41 = load i64, ptr %19, align 8, !tbaa !13
  %42 = load ptr, ptr %12, align 8, !tbaa !6
  %43 = getelementptr inbounds nuw %struct.evp_aead_ctx_st, ptr %42, i32 0, i32 0
  %44 = load ptr, ptr %43, align 8, !tbaa !31
  %45 = call i64 @EVP_AEAD_max_overhead(ptr noundef %44)
  %46 = add i64 %41, %45
  %47 = load i64, ptr %19, align 8, !tbaa !13
  %48 = icmp ult i64 %46, %47
  br i1 %48, label %52, label %49

49:                                               ; preds = %40
  %50 = load i64, ptr %19, align 8, !tbaa !13
  %51 = icmp ugt i64 %50, 2147483647
  br i1 %51, label %52, label %53

52:                                               ; preds = %49, %40
  call void @ERR_put_error(i32 noundef 30, i32 noundef 0, i32 noundef 117, ptr noundef @.str, i32 noundef 143)
  store i32 0, ptr %11, align 4
  store i32 1, ptr %24, align 4
  br label %174

53:                                               ; preds = %49
  %54 = load i64, ptr %15, align 8, !tbaa !13
  %55 = load i64, ptr %19, align 8, !tbaa !13
  %56 = load ptr, ptr %12, align 8, !tbaa !6
  %57 = getelementptr inbounds nuw %struct.evp_aead_ctx_st, ptr %56, i32 0, i32 0
  %58 = load ptr, ptr %57, align 8, !tbaa !31
  %59 = call i64 @EVP_AEAD_max_overhead(ptr noundef %58)
  %60 = add i64 %55, %59
  %61 = icmp ult i64 %54, %60
  br i1 %61, label %62, label %63

62:                                               ; preds = %53
  call void @ERR_put_error(i32 noundef 30, i32 noundef 0, i32 noundef 103, ptr noundef @.str, i32 noundef 148)
  store i32 0, ptr %11, align 4
  store i32 1, ptr %24, align 4
  br label %174

63:                                               ; preds = %53
  %64 = load i64, ptr %17, align 8, !tbaa !13
  %65 = icmp ne i64 %64, 0
  br i1 %65, label %66, label %67

66:                                               ; preds = %63
  call void @ERR_put_error(i32 noundef 30, i32 noundef 0, i32 noundef 113, ptr noundef @.str, i32 noundef 153)
  store i32 0, ptr %11, align 4
  store i32 1, ptr %24, align 4
  br label %174

67:                                               ; preds = %63
  %68 = load i64, ptr %21, align 8, !tbaa !13
  %69 = icmp ne i64 %68, 9
  br i1 %69, label %70, label %71

70:                                               ; preds = %67
  call void @ERR_put_error(i32 noundef 30, i32 noundef 0, i32 noundef 109, ptr noundef @.str, i32 noundef 158)
  store i32 0, ptr %11, align 4
  store i32 1, ptr %24, align 4
  br label %174

71:                                               ; preds = %67
  call void @llvm.lifetime.start.p0(i64 64, ptr %25) #6
  call void @llvm.lifetime.start.p0(i64 4, ptr %26) #6
  %72 = load ptr, ptr %22, align 8, !tbaa !20
  %73 = getelementptr inbounds [64 x i8], ptr %25, i64 0, i64 0
  %74 = load ptr, ptr %20, align 8, !tbaa !11
  %75 = load i64, ptr %21, align 8, !tbaa !13
  %76 = load ptr, ptr %18, align 8, !tbaa !11
  %77 = load i64, ptr %19, align 8, !tbaa !13
  %78 = call i32 @ssl3_mac(ptr noundef %72, ptr noundef %73, ptr noundef %26, ptr noundef %74, i64 noundef %75, ptr noundef %76, i64 noundef %77)
  %79 = icmp ne i32 %78, 0
  br i1 %79, label %81, label %80

80:                                               ; preds = %71
  store i32 0, ptr %11, align 4
  store i32 1, ptr %24, align 4
  br label %173

81:                                               ; preds = %71
  call void @llvm.lifetime.start.p0(i64 4, ptr %27) #6
  %82 = load ptr, ptr %22, align 8, !tbaa !20
  %83 = getelementptr inbounds nuw %struct.AEAD_SSL3_CTX, ptr %82, i32 0, i32 0
  %84 = load ptr, ptr %13, align 8, !tbaa !11
  %85 = load ptr, ptr %18, align 8, !tbaa !11
  %86 = load i64, ptr %19, align 8, !tbaa !13
  %87 = trunc i64 %86 to i32
  %88 = call i32 @EVP_EncryptUpdate(ptr noundef %83, ptr noundef %84, ptr noundef %27, ptr noundef %85, i32 noundef %87)
  %89 = icmp ne i32 %88, 0
  br i1 %89, label %91, label %90

90:                                               ; preds = %81
  store i32 0, ptr %11, align 4
  store i32 1, ptr %24, align 4
  br label %172

91:                                               ; preds = %81
  %92 = load i32, ptr %27, align 4, !tbaa !15
  %93 = sext i32 %92 to i64
  store i64 %93, ptr %23, align 8, !tbaa !13
  %94 = load ptr, ptr %22, align 8, !tbaa !20
  %95 = getelementptr inbounds nuw %struct.AEAD_SSL3_CTX, ptr %94, i32 0, i32 0
  %96 = load ptr, ptr %13, align 8, !tbaa !11
  %97 = load i64, ptr %23, align 8, !tbaa !13
  %98 = getelementptr inbounds nuw i8, ptr %96, i64 %97
  %99 = getelementptr inbounds [64 x i8], ptr %25, i64 0, i64 0
  %100 = load i32, ptr %26, align 4, !tbaa !15
  %101 = call i32 @EVP_EncryptUpdate(ptr noundef %95, ptr noundef %98, ptr noundef %27, ptr noundef %99, i32 noundef %100)
  %102 = icmp ne i32 %101, 0
  br i1 %102, label %104, label %103

103:                                              ; preds = %91
  store i32 0, ptr %11, align 4
  store i32 1, ptr %24, align 4
  br label %172

104:                                              ; preds = %91
  %105 = load i32, ptr %27, align 4, !tbaa !15
  %106 = sext i32 %105 to i64
  %107 = load i64, ptr %23, align 8, !tbaa !13
  %108 = add i64 %107, %106
  store i64 %108, ptr %23, align 8, !tbaa !13
  call void @llvm.lifetime.start.p0(i64 4, ptr %28) #6
  %109 = load ptr, ptr %22, align 8, !tbaa !20
  %110 = getelementptr inbounds nuw %struct.AEAD_SSL3_CTX, ptr %109, i32 0, i32 0
  %111 = call i32 @EVP_CIPHER_CTX_block_size(ptr noundef %110)
  store i32 %111, ptr %28, align 4, !tbaa !15
  %112 = load i32, ptr %28, align 4, !tbaa !15
  %113 = icmp ugt i32 %112, 1
  br i1 %113, label %114, label %155

114:                                              ; preds = %104
  call void @llvm.lifetime.start.p0(i64 256, ptr %29) #6
  call void @llvm.lifetime.start.p0(i64 4, ptr %30) #6
  %115 = load i32, ptr %28, align 4, !tbaa !15
  %116 = zext i32 %115 to i64
  %117 = load i64, ptr %19, align 8, !tbaa !13
  %118 = load i32, ptr %26, align 4, !tbaa !15
  %119 = zext i32 %118 to i64
  %120 = add i64 %117, %119
  %121 = load i32, ptr %28, align 4, !tbaa !15
  %122 = zext i32 %121 to i64
  %123 = urem i64 %120, %122
  %124 = sub i64 %116, %123
  %125 = trunc i64 %124 to i32
  store i32 %125, ptr %30, align 4, !tbaa !15
  %126 = getelementptr inbounds [256 x i8], ptr %29, i64 0, i64 0
  %127 = load i32, ptr %30, align 4, !tbaa !15
  %128 = sub i32 %127, 1
  %129 = zext i32 %128 to i64
  call void @llvm.memset.p0.i64(ptr align 16 %126, i8 0, i64 %129, i1 false)
  %130 = load i32, ptr %30, align 4, !tbaa !15
  %131 = sub i32 %130, 1
  %132 = trunc i32 %131 to i8
  %133 = load i32, ptr %30, align 4, !tbaa !15
  %134 = sub i32 %133, 1
  %135 = zext i32 %134 to i64
  %136 = getelementptr inbounds nuw [256 x i8], ptr %29, i64 0, i64 %135
  store i8 %132, ptr %136, align 1, !tbaa !32
  %137 = load ptr, ptr %22, align 8, !tbaa !20
  %138 = getelementptr inbounds nuw %struct.AEAD_SSL3_CTX, ptr %137, i32 0, i32 0
  %139 = load ptr, ptr %13, align 8, !tbaa !11
  %140 = load i64, ptr %23, align 8, !tbaa !13
  %141 = getelementptr inbounds nuw i8, ptr %139, i64 %140
  %142 = getelementptr inbounds [256 x i8], ptr %29, i64 0, i64 0
  %143 = load i32, ptr %30, align 4, !tbaa !15
  %144 = call i32 @EVP_EncryptUpdate(ptr noundef %138, ptr noundef %141, ptr noundef %27, ptr noundef %142, i32 noundef %143)
  %145 = icmp ne i32 %144, 0
  br i1 %145, label %147, label %146

146:                                              ; preds = %114
  store i32 0, ptr %11, align 4
  store i32 1, ptr %24, align 4
  br label %152

147:                                              ; preds = %114
  %148 = load i32, ptr %27, align 4, !tbaa !15
  %149 = sext i32 %148 to i64
  %150 = load i64, ptr %23, align 8, !tbaa !13
  %151 = add i64 %150, %149
  store i64 %151, ptr %23, align 8, !tbaa !13
  store i32 0, ptr %24, align 4
  br label %152

152:                                              ; preds = %147, %146
  call void @llvm.lifetime.end.p0(i64 4, ptr %30) #6
  call void @llvm.lifetime.end.p0(i64 256, ptr %29) #6
  %153 = load i32, ptr %24, align 4
  switch i32 %153, label %171 [
    i32 0, label %154
  ]

154:                                              ; preds = %152
  br label %155

155:                                              ; preds = %154, %104
  %156 = load ptr, ptr %22, align 8, !tbaa !20
  %157 = getelementptr inbounds nuw %struct.AEAD_SSL3_CTX, ptr %156, i32 0, i32 0
  %158 = load ptr, ptr %13, align 8, !tbaa !11
  %159 = load i64, ptr %23, align 8, !tbaa !13
  %160 = getelementptr inbounds nuw i8, ptr %158, i64 %159
  %161 = call i32 @EVP_EncryptFinal_ex(ptr noundef %157, ptr noundef %160, ptr noundef %27)
  %162 = icmp ne i32 %161, 0
  br i1 %162, label %164, label %163

163:                                              ; preds = %155
  store i32 0, ptr %11, align 4
  store i32 1, ptr %24, align 4
  br label %171

164:                                              ; preds = %155
  %165 = load i32, ptr %27, align 4, !tbaa !15
  %166 = sext i32 %165 to i64
  %167 = load i64, ptr %23, align 8, !tbaa !13
  %168 = add i64 %167, %166
  store i64 %168, ptr %23, align 8, !tbaa !13
  %169 = load i64, ptr %23, align 8, !tbaa !13
  %170 = load ptr, ptr %14, align 8, !tbaa !21
  store i64 %169, ptr %170, align 8, !tbaa !13
  store i32 1, ptr %11, align 4
  store i32 1, ptr %24, align 4
  br label %171

171:                                              ; preds = %164, %163, %152
  call void @llvm.lifetime.end.p0(i64 4, ptr %28) #6
  br label %172

172:                                              ; preds = %171, %103, %90
  call void @llvm.lifetime.end.p0(i64 4, ptr %27) #6
  br label %173

173:                                              ; preds = %172, %80
  call void @llvm.lifetime.end.p0(i64 4, ptr %26) #6
  call void @llvm.lifetime.end.p0(i64 64, ptr %25) #6
  br label %174

174:                                              ; preds = %173, %70, %66, %62, %52, %39
  call void @llvm.lifetime.end.p0(i64 8, ptr %23) #6
  call void @llvm.lifetime.end.p0(i64 8, ptr %22) #6
  %175 = load i32, ptr %11, align 4
  ret i32 %175
}