; Function Attrs: nounwind uwtable
define internal range(i32 0, 2) i32 @aead_ssl3_seal(ptr noundef readonly captures(none) %0, ptr noundef %1, ptr noundef writeonly captures(none) %2, i64 noundef %3, ptr readnone captures(none) %4, i64 noundef %5, ptr noundef %6, i64 noundef %7, ptr noundef %8, i64 noundef %9) #1 {
  %11 = alloca [64 x i8], align 16
  %12 = alloca i32, align 4
  %13 = alloca i32, align 4
  %14 = alloca [256 x i8], align 16
  %15 = getelementptr inbounds nuw i8, ptr %0, i64 8
  %16 = load ptr, ptr %15, align 8, !tbaa !6
  %17 = getelementptr inbounds nuw i8, ptr %16, i64 28
  %18 = load i32, ptr %17, align 4, !tbaa !12
  %.not = icmp eq i32 %18, 0
  br i1 %.not, label %19, label %20

19:                                               ; preds = %10
  tail call void @ERR_put_error(i32 noundef 30, i32 noundef 0, i32 noundef 112, ptr noundef nonnull @.str, i32 noundef 136) #7
  br label %80

20:                                               ; preds = %10
  %21 = load ptr, ptr %0, align 8, !tbaa !21
  %22 = tail call i64 @EVP_AEAD_max_overhead(ptr noundef %21) #7
  %23 = xor i64 %7, -1
  %24 = icmp ugt i64 %22, %23
  %25 = icmp ugt i64 %7, 2147483647
  %or.cond = or i1 %25, %24
  br i1 %or.cond, label %26, label %27

26:                                               ; preds = %20
  tail call void @ERR_put_error(i32 noundef 30, i32 noundef 0, i32 noundef 117, ptr noundef nonnull @.str, i32 noundef 143) #7
  br label %80

27:                                               ; preds = %20
  %28 = load ptr, ptr %0, align 8, !tbaa !21
  %29 = tail call i64 @EVP_AEAD_max_overhead(ptr noundef %28) #7
  %30 = add i64 %29, %7
  %31 = icmp ult i64 %3, %30
  br i1 %31, label %32, label %33

32:                                               ; preds = %27
  tail call void @ERR_put_error(i32 noundef 30, i32 noundef 0, i32 noundef 103, ptr noundef nonnull @.str, i32 noundef 148) #7
  br label %80

33:                                               ; preds = %27
  %.not51 = icmp eq i64 %5, 0
  br i1 %.not51, label %35, label %34

34:                                               ; preds = %33
  tail call void @ERR_put_error(i32 noundef 30, i32 noundef 0, i32 noundef 113, ptr noundef nonnull @.str, i32 noundef 153) #7
  br label %80

35:                                               ; preds = %33
  %.not52 = icmp eq i64 %9, 9
  br i1 %.not52, label %37, label %36

36:                                               ; preds = %35
  tail call void @ERR_put_error(i32 noundef 30, i32 noundef 0, i32 noundef 109, ptr noundef nonnull @.str, i32 noundef 158) #7
  br label %80

37:                                               ; preds = %35
  call void @llvm.lifetime.start.p0(i64 64, ptr nonnull %11) #7
  call void @llvm.lifetime.start.p0(i64 4, ptr nonnull %12) #7
  %38 = call fastcc i32 @ssl3_mac(ptr noundef nonnull %16, ptr noundef %11, ptr noundef nonnull %12, ptr noundef %8, ptr noundef %6, i64 noundef %7)
  %.not53 = icmp eq i32 %38, 0
  br i1 %.not53, label %79, label %39

39:                                               ; preds = %37
  call void @llvm.lifetime.start.p0(i64 4, ptr nonnull %13) #7
  %40 = trunc nuw nsw i64 %7 to i32
  %41 = call i32 @EVP_EncryptUpdate(ptr noundef nonnull %16, ptr noundef %1, ptr noundef nonnull %13, ptr noundef %6, i32 noundef %40) #7
  %.not54 = icmp eq i32 %41, 0
  br i1 %.not54, label %78, label %42

42:                                               ; preds = %39
  %43 = load i32, ptr %13, align 4, !tbaa !22
  %44 = sext i32 %43 to i64
  %45 = getelementptr inbounds nuw i8, ptr %1, i64 %44
  %46 = load i32, ptr %12, align 4, !tbaa !22
  %47 = call i32 @EVP_EncryptUpdate(ptr noundef nonnull %16, ptr noundef %45, ptr noundef nonnull %13, ptr noundef nonnull %11, i32 noundef %46) #7
  %.not55 = icmp eq i32 %47, 0
  br i1 %.not55, label %78, label %48

48:                                               ; preds = %42
  %49 = load i32, ptr %13, align 4, !tbaa !22
  %50 = sext i32 %49 to i64
  %51 = add nsw i64 %50, %44
  %52 = call i32 @EVP_CIPHER_CTX_block_size(ptr noundef nonnull %16) #7
  %53 = icmp ugt i32 %52, 1
  br i1 %53, label %54, label %71

54:                                               ; preds = %48
  call void @llvm.lifetime.start.p0(i64 256, ptr nonnull %14) #7
  %55 = zext i32 %52 to i64
  %56 = load i32, ptr %12, align 4, !tbaa !22
  %57 = zext i32 %56 to i64
  %58 = add nuw nsw i64 %7, %57
  %59 = urem i64 %58, %55
  %60 = trunc nuw i64 %59 to i32
  %61 = sub i32 %52, %60
  %62 = add i32 %61, -1
  %63 = zext i32 %62 to i64
  call void @llvm.memset.p0.i64(ptr nonnull align 16 %14, i8 0, i64 %63, i1 false)
  %64 = trunc i32 %62 to i8
  %65 = getelementptr inbounds nuw [256 x i8], ptr %14, i64 0, i64 %63
  store i8 %64, ptr %65, align 1, !tbaa !23
  %66 = getelementptr inbounds nuw i8, ptr %1, i64 %51
  %67 = call i32 @EVP_EncryptUpdate(ptr noundef nonnull %16, ptr noundef %66, ptr noundef nonnull %13, ptr noundef nonnull %14, i32 noundef %61) #7
  %.not56.not = icmp eq i32 %67, 0
  %68 = load i32, ptr %13, align 4
  %69 = sext i32 %68 to i64
  %70 = add nsw i64 %51, %69
  call void @llvm.lifetime.end.p0(i64 256, ptr nonnull %14) #7
  br i1 %.not56.not, label %78, label %71

71:                                               ; preds = %54, %48
  %.045 = phi i64 [ %70, %54 ], [ %51, %48 ]
  %72 = getelementptr inbounds nuw i8, ptr %1, i64 %.045
  %73 = call i32 @EVP_EncryptFinal_ex(ptr noundef nonnull %16, ptr noundef %72, ptr noundef nonnull %13) #7
  %.not57 = icmp eq i32 %73, 0
  br i1 %.not57, label %78, label %74

74:                                               ; preds = %71
  %75 = load i32, ptr %13, align 4, !tbaa !22
  %76 = sext i32 %75 to i64
  %77 = add nsw i64 %.045, %76
  store i64 %77, ptr %2, align 8, !tbaa !24
  br label %78

78:                                               ; preds = %74, %54, %71, %42, %39
  %.2 = phi i32 [ 0, %39 ], [ 0, %42 ], [ 1, %74 ], [ 0, %54 ], [ 0, %71 ]
  call void @llvm.lifetime.end.p0(i64 4, ptr nonnull %13) #7
  br label %79

79:                                               ; preds = %37, %78
  %.1 = phi i32 [ %.2, %78 ], [ 0, %37 ]
  call void @llvm.lifetime.end.p0(i64 4, ptr nonnull %12) #7
  call void @llvm.lifetime.end.p0(i64 64, ptr nonnull %11) #7
  br label %80

80:                                               ; preds = %79, %36, %34, %32, %26, %19
  %.0 = phi i32 [ 0, %26 ], [ 0, %32 ], [ 0, %34 ], [ 0, %36 ], [ %.1, %79 ], [ 0, %19 ]
  ret i32 %.0
}